; ModuleID = '4/1957.c'
source_filename = "4/1957.c"
target datalayout = "e-m:e-p270:32:32-p271:32:32-p272:64:64-i64:64-f80:128-n8:16:32:64-S128"
target triple = "x86_64-pc-linux-gnu"

@.str = private unnamed_addr constant [6 x i8] c"%d %d\00", align 1
@.str.1 = private unnamed_addr constant [3 x i8] c"%d\00", align 1
@.str.2 = private unnamed_addr constant [4 x i8] c"%d\0A\00", align 1

; Function Attrs: noinline nounwind uwtable
define dso_local i32 @main() #0 {
  %1 = alloca i32, align 4
  %2 = alloca i32, align 4
  %3 = alloca [100 x i32]*, align 8
  %4 = alloca i32, align 4
  %5 = alloca i32, align 4
  %6 = alloca i32, align 4
  %7 = alloca i32, align 4
  %8 = alloca i32, align 4
  store i32 0, i32* %1, align 4
  %9 = call i32 (i8*, ...) @__isoc99_scanf(i8* getelementptr inbounds ([6 x i8], [6 x i8]* @.str, i64 0, i64 0), i32* %4, i32* %5)
  %10 = call noalias i8* @calloc(i64 100, i64 400) #3
  %11 = bitcast i8* %10 to [100 x i32]*
  store [100 x i32]* %11, [100 x i32]** %3, align 8
  store i32 0, i32* %2, align 4
  br label %12

12:                                               ; preds = %35, %0
  %13 = load i32, i32* %2, align 4
  %14 = load i32, i32* %4, align 4
  %15 = icmp slt i32 %13, %14
  br i1 %15, label %16, label %38

16:                                               ; preds = %12
  store i32 0, i32* %8, align 4
  br label %17

17:                                               ; preds = %31, %16
  %18 = load i32, i32* %8, align 4
  %19 = load i32, i32* %5, align 4
  %20 = icmp slt i32 %18, %19
  br i1 %20, label %21, label %34

21:                                               ; preds = %17
  %22 = load [100 x i32]*, [100 x i32]** %3, align 8
  %23 = load i32, i32* %2, align 4
  %24 = sext i32 %23 to i64
  %25 = getelementptr inbounds [100 x i32], [100 x i32]* %22, i64 %24
  %26 = getelementptr inbounds [100 x i32], [100 x i32]* %25, i64 0, i64 0
  %27 = load i32, i32* %8, align 4
  %28 = sext i32 %27 to i64
  %29 = getelementptr inbounds i32, i32* %26, i64 %28
  %30 = call i32 (i8*, ...) @__isoc99_scanf(i8* getelementptr inbounds ([3 x i8], [3 x i8]* @.str.1, i64 0, i64 0), i32* %29)
  br label %31

31:                                               ; preds = %21
  %32 = load i32, i32* %8, align 4
  %33 = add nsw i32 %32, 1
  store i32 %33, i32* %8, align 4
  br label %17

34:                                               ; preds = %17
  br label %35

35:                                               ; preds = %34
  %36 = load i32, i32* %2, align 4
  %37 = add nsw i32 %36, 1
  store i32 %37, i32* %2, align 4
  br label %12

38:                                               ; preds = %12
  store i32 0, i32* %2, align 4
  br label %39

39:                                               ; preds = %70, %38
  %40 = load i32, i32* %2, align 4
  %41 = load i32, i32* %5, align 4
  %42 = icmp slt i32 %40, %41
  br i1 %42, label %43, label %73

43:                                               ; preds = %39
  store i32 0, i32* %6, align 4
  %44 = load i32, i32* %2, align 4
  store i32 %44, i32* %7, align 4
  br label %45

45:                                               ; preds = %54, %43
  %46 = load i32, i32* %6, align 4
  %47 = load i32, i32* %4, align 4
  %48 = icmp slt i32 %46, %47
  br i1 %48, label %49, label %52

49:                                               ; preds = %45
  %50 = load i32, i32* %7, align 4
  %51 = icmp sge i32 %50, 0
  br label %52

52:                                               ; preds = %49, %45
  %53 = phi i1 [ false, %45 ], [ %51, %49 ]
  br i1 %53, label %54, label %69

54:                                               ; preds = %52
  %55 = load [100 x i32]*, [100 x i32]** %3, align 8
  %56 = load i32, i32* %6, align 4
  %57 = sext i32 %56 to i64
  %58 = getelementptr inbounds [100 x i32], [100 x i32]* %55, i64 %57
  %59 = getelementptr inbounds [100 x i32], [100 x i32]* %58, i64 0, i64 0
  %60 = load i32, i32* %7, align 4
  %61 = sext i32 %60 to i64
  %62 = getelementptr inbounds i32, i32* %59, i64 %61
  %63 = load i32, i32* %62, align 4
  %64 = call i32 (i8*, ...) @printf(i8* getelementptr inbounds ([4 x i8], [4 x i8]* @.str.2, i64 0, i64 0), i32 %63)
  %65 = load i32, i32* %6, align 4
  %66 = add nsw i32 %65, 1
  store i32 %66, i32* %6, align 4
  %67 = load i32, i32* %7, align 4
  %68 = add nsw i32 %67, -1
  store i32 %68, i32* %7, align 4
  br label %45

69:                                               ; preds = %52
  br label %70

70:                                               ; preds = %69
  %71 = load i32, i32* %2, align 4
  %72 = add nsw i32 %71, 1
  store i32 %72, i32* %2, align 4
  br label %39

73:                                               ; preds = %39
  store i32 1, i32* %2, align 4
  br label %74

74:                                               ; preds = %107, %73
  %75 = load i32, i32* %2, align 4
  %76 = load i32, i32* %4, align 4
  %77 = icmp slt i32 %75, %76
  br i1 %77, label %78, label %110

78:                                               ; preds = %74
  %79 = load i32, i32* %2, align 4
  store i32 %79, i32* %6, align 4
  %80 = load i32, i32* %5, align 4
  %81 = sub nsw i32 %80, 1
  store i32 %81, i32* %7, align 4
  br label %82

82:                                               ; preds = %91, %78
  %83 = load i32, i32* %6, align 4
  %84 = load i32, i32* %4, align 4
  %85 = icmp slt i32 %83, %84
  br i1 %85, label %86, label %89

86:                                               ; preds = %82
  %87 = load i32, i32* %7, align 4
  %88 = icmp sge i32 %87, 0
  br label %89

89:                                               ; preds = %86, %82
  %90 = phi i1 [ false, %82 ], [ %88, %86 ]
  br i1 %90, label %91, label %106

91:                                               ; preds = %89
  %92 = load [100 x i32]*, [100 x i32]** %3, align 8
  %93 = load i32, i32* %6, align 4
  %94 = sext i32 %93 to i64
  %95 = getelementptr inbounds [100 x i32], [100 x i32]* %92, i64 %94
  %96 = getelementptr inbounds [100 x i32], [100 x i32]* %95, i64 0, i64 0
  %97 = load i32, i32* %7, align 4
  %98 = sext i32 %97 to i64
  %99 = getelementptr inbounds i32, i32* %96, i64 %98
  %100 = load i32, i32* %99, align 4
  %101 = call i32 (i8*, ...) @printf(i8* getelementptr inbounds ([4 x i8], [4 x i8]* @.str.2, i64 0, i64 0), i32 %100)
  %102 = load i32, i32* %6, align 4
  %103 = add nsw i32 %102, 1
  store i32 %103, i32* %6, align 4
  %104 = load i32, i32* %7, align 4
  %105 = add nsw i32 %104, -1
  store i32 %105, i32* %7, align 4
  br label %82

106:                                              ; preds = %89
  br label %107

107:                                              ; preds = %106
  %108 = load i32, i32* %2, align 4
  %109 = add nsw i32 %108, 1
  store i32 %109, i32* %2, align 4
  br label %74

110:                                              ; preds = %74
  ret i32 0
}

declare dso_local i32 @__isoc99_scanf(i8*, ...) #1

; Function Attrs: nounwind
declare dso_local noalias i8* @calloc(i64, i64) #2

declare dso_local i32 @printf(i8*, ...) #1


!llvm.module.flags = !{!0}
!llvm.ident = !{!1}

!0 = !{i32 1, !"wchar_size", i32 4}
!1 = !{!"clang version 10.0.0-4ubuntu1 "}
